target datalayout = "e-m:e-p270:32:32-p271:32:32-p272:64:64-i64:64-i128:128-f80:128-n8:16:32:64-S128"
target triple = "x86_64-pc-linux-gnu"

%struct.archive_entry = type { ptr, ptr, i32, %struct.aest, i32, %struct.archive_mstring, i64, i64, %struct.archive_mstring, %struct.archive_mstring, %struct.archive_mstring, %struct.archive_mstring, %struct.archive_mstring, i8, ptr, i64, %struct.ae_digest, %struct.archive_acl, ptr, ptr, ptr, ptr, ptr, [12 x i8], i32 }
%struct.aest = type { i64, i32, i64, i32, i64, i32, i64, i32, i64, i64, i32, i64, i64, i32, i64, i64, i64, i32, i64, i64, i64 }
%struct.archive_mstring = type { %struct.archive_string, %struct.archive_string, %struct.archive_wstring, %struct.archive_string, i32 }
%struct.archive_wstring = type { ptr, i64, i64 }
%struct.archive_string = type { ptr, i64, i64 }
%struct.ae_digest = type { [16 x i8], [20 x i8], [20 x i8], [32 x i8], [48 x i8], [64 x i8] }
%struct.archive_acl = type { i32, ptr, ptr, i32, ptr, ptr, i32 }
%struct.ae_sparse = type { ptr, i64, i64 }

; Function Attrs: nounwind uwtable
define dso_local i32 @archive_entry_sparse_next(ptr noundef %0, ptr noundef %1, ptr noundef %2) #0 {
  %4 = alloca i32, align 4
  %5 = alloca ptr, align 8
  %6 = alloca ptr, align 8
  %7 = alloca ptr, align 8
  store ptr %0, ptr %5, align 8, !tbaa !4
  store ptr %1, ptr %6, align 8, !tbaa !37
  store ptr %2, ptr %7, align 8, !tbaa !37
  %8 = load ptr, ptr %5, align 8, !tbaa !4
  %9 = getelementptr inbounds nuw %struct.archive_entry, ptr %8, i32 0, i32 22
  %10 = load ptr, ptr %9, align 8, !tbaa !36
  %11 = icmp ne ptr %10, null
  br i1 %11, label %12, label %32

12:                                               ; preds = %3
  %13 = load ptr, ptr %5, align 8, !tbaa !4
  %14 = getelementptr inbounds nuw %struct.archive_entry, ptr %13, i32 0, i32 22
  %15 = load ptr, ptr %14, align 8, !tbaa !36
  %16 = getelementptr inbounds nuw %struct.ae_sparse, ptr %15, i32 0, i32 1
  %17 = load i64, ptr %16, align 8, !tbaa !32
  %18 = load ptr, ptr %6, align 8, !tbaa !37
  store i64 %17, ptr %18, align 8, !tbaa !31
  %19 = load ptr, ptr %5, align 8, !tbaa !4
  %20 = getelementptr inbounds nuw %struct.archive_entry, ptr %19, i32 0, i32 22
  %21 = load ptr, ptr %20, align 8, !tbaa !36
  %22 = getelementptr inbounds nuw %struct.ae_sparse, ptr %21, i32 0, i32 2
  %23 = load i64, ptr %22, align 8, !tbaa !33
  %24 = load ptr, ptr %7, align 8, !tbaa !37
  store i64 %23, ptr %24, align 8, !tbaa !31
  %25 = load ptr, ptr %5, align 8, !tbaa !4
  %26 = getelementptr inbounds nuw %struct.archive_entry, ptr %25, i32 0, i32 22
  %27 = load ptr, ptr %26, align 8, !tbaa !36
  %28 = getelementptr inbounds nuw %struct.ae_sparse, ptr %27, i32 0, i32 0
  %29 = load ptr, ptr %28, align 8, !tbaa !25
  %30 = load ptr, ptr %5, align 8, !tbaa !4
  %31 = getelementptr inbounds nuw %struct.archive_entry, ptr %30, i32 0, i32 22
  store ptr %29, ptr %31, align 8, !tbaa !36
  store i32 0, ptr %4, align 4
  br label %35

32:                                               ; preds = %3
  %33 = load ptr, ptr %6, align 8, !tbaa !37
  store i64 0, ptr %33, align 8, !tbaa !31
  %34 = load ptr, ptr %7, align 8, !tbaa !37
  store i64 0, ptr %34, align 8, !tbaa !31
  store i32 -20, ptr %4, align 4
  br label %35

35:                                               ; preds = %32, %12
  %36 = load i32, ptr %4, align 4
  ret i32 %36
}