; Function Attrs: mustprogress nofree norecurse nosync nounwind willreturn memory(read, argmem: readwrite, inaccessiblemem: none) uwtable
define dso_local range(i32 -20, 1) i32 @archive_entry_sparse_next(ptr noundef captures(none) %0, ptr noundef writeonly captures(none) initializes((0, 8)) %1, ptr noundef writeonly captures(none) initializes((0, 8)) %2) local_unnamed_addr #4 {
  %4 = getelementptr inbounds nuw i8, ptr %0, i64 1152
  %5 = load ptr, ptr %4, align 8, !tbaa !32
  %.not = icmp eq ptr %5, null
  br i1 %.not, label %12, label %6

6:                                                ; preds = %3
  %7 = getelementptr inbounds nuw i8, ptr %5, i64 8
  %8 = load i64, ptr %7, align 8, !tbaa !28
  store i64 %8, ptr %1, align 8, !tbaa !33
  %9 = getelementptr inbounds nuw i8, ptr %5, i64 16
  %10 = load i64, ptr %9, align 8, !tbaa !29
  %11 = load ptr, ptr %5, align 8, !tbaa !23
  store ptr %11, ptr %4, align 8, !tbaa !32
  br label %13

12:                                               ; preds = %3
  store i64 0, ptr %1, align 8, !tbaa !33
  br label %13

13:                                               ; preds = %12, %6
  %.sink = phi i64 [ 0, %12 ], [ %10, %6 ]
  %.0 = phi i32 [ -20, %12 ], [ 0, %6 ]
  store i64 %.sink, ptr %2, align 8, !tbaa !33
  ret i32 %.0
}